target datalayout = "e-m:e-p270:32:32-p271:32:32-p272:64:64-i64:64-i128:128-f80:128-n8:16:32:64-S128"
target triple = "x86_64-pc-linux-gnu"

%struct.Vec_Ptr_t_ = type { i32, i32, ptr }
%struct.SC_Surface_ = type { ptr, %struct.Vec_Flt_t_, %struct.Vec_Flt_t_, %struct.Vec_Ptr_t_, %struct.Vec_Int_t_, %struct.Vec_Int_t_, %struct.Vec_Ptr_t_, [3 x [6 x float]] }
%struct.Vec_Flt_t_ = type { i32, i32, ptr }
%struct.Vec_Int_t_ = type { i32, i32, ptr }

@.str.24 = private unnamed_addr constant [2 x i8] c"\0A\00", align 1
@.str.63 = private unnamed_addr constant [20 x i8] c"          index_1(\22\00", align 1
@.str.64 = private unnamed_addr constant [5 x i8] c"%f%s\00", align 1
@.str.65 = private unnamed_addr constant [1 x i8] zeroinitializer, align 1
@.str.66 = private unnamed_addr constant [3 x i8] c", \00", align 1
@.str.67 = private unnamed_addr constant [5 x i8] c"\22);\0A\00", align 1
@.str.68 = private unnamed_addr constant [20 x i8] c"          index_2(\22\00", align 1
@.str.69 = private unnamed_addr constant [20 x i8] c"          values (\22\00", align 1
@.str.70 = private unnamed_addr constant [4 x i8] c"\22);\00", align 1
@.str.71 = private unnamed_addr constant [3 x i8] c"\\\0A\00", align 1
@.str.72 = private unnamed_addr constant [20 x i8] c"                   \00", align 1

; Function Attrs: inlinehint nounwind uwtable
define internal ptr @Vec_PtrEntry(ptr noundef %0, i32 noundef %1) #3 {
  %3 = alloca ptr, align 8
  %4 = alloca i32, align 4
  store ptr %0, ptr %3, align 8, !tbaa !96
  store i32 %1, ptr %4, align 4, !tbaa !53
  %5 = load ptr, ptr %3, align 8, !tbaa !96
  %6 = getelementptr inbounds nuw %struct.Vec_Ptr_t_, ptr %5, i32 0, i32 2
  %7 = load ptr, ptr %6, align 8, !tbaa !118
  %8 = load i32, ptr %4, align 4, !tbaa !53
  %9 = sext i32 %8 to i64
  %10 = getelementptr inbounds ptr, ptr %7, i64 %9
  %11 = load ptr, ptr %10, align 8, !tbaa !3
  ret ptr %11
}

; Function Attrs: inlinehint nounwind uwtable
define internal i32 @Vec_PtrSize(ptr noundef %0) #3 {
  %2 = alloca ptr, align 8
  store ptr %0, ptr %2, align 8, !tbaa !96
  %3 = load ptr, ptr %2, align 8, !tbaa !96
  %4 = getelementptr inbounds nuw %struct.Vec_Ptr_t_, ptr %3, i32 0, i32 1
  %5 = load i32, ptr %4, align 4, !tbaa !117
  ret i32 %5
}

; Function Attrs: inlinehint nounwind uwtable
define internal float @Vec_FltEntry(ptr noundef %0, i32 noundef %1) #3 {
  %3 = alloca ptr, align 8
  %4 = alloca i32, align 4
  store ptr %0, ptr %3, align 8, !tbaa !144
  store i32 %1, ptr %4, align 4, !tbaa !53
  %5 = load ptr, ptr %3, align 8, !tbaa !144
  %6 = getelementptr inbounds nuw %struct.Vec_Flt_t_, ptr %5, i32 0, i32 2
  %7 = load ptr, ptr %6, align 8, !tbaa !152
  %8 = load i32, ptr %4, align 4, !tbaa !53
  %9 = sext i32 %8 to i64
  %10 = getelementptr inbounds float, ptr %7, i64 %9
  %11 = load float, ptr %10, align 4, !tbaa !138
  ret float %11
}

; Function Attrs: inlinehint nounwind uwtable
define internal i32 @Vec_FltSize(ptr noundef %0) #3 {
  %2 = alloca ptr, align 8
  store ptr %0, ptr %2, align 8, !tbaa !144
  %3 = load ptr, ptr %2, align 8, !tbaa !144
  %4 = getelementptr inbounds nuw %struct.Vec_Flt_t_, ptr %3, i32 0, i32 1
  %5 = load i32, ptr %4, align 4, !tbaa !150
  ret i32 %5
}

; Function Attrs: nounwind uwtable
define internal void @Abc_SclWriteSurfaceText(ptr noundef %0, ptr noundef %1) #0 {
  %3 = alloca ptr, align 8
  %4 = alloca ptr, align 8
  %5 = alloca ptr, align 8
  %6 = alloca float, align 4
  %7 = alloca i32, align 4
  %8 = alloca i32, align 4
  store ptr %0, ptr %3, align 8, !tbaa !107
  store ptr %1, ptr %4, align 8, !tbaa !142
  call void @llvm.lifetime.start.p0(i64 8, ptr %5) #11
  call void @llvm.lifetime.start.p0(i64 4, ptr %6) #11
  call void @llvm.lifetime.start.p0(i64 4, ptr %7) #11
  call void @llvm.lifetime.start.p0(i64 4, ptr %8) #11
  %9 = load ptr, ptr %3, align 8, !tbaa !107
  %10 = call i32 (ptr, ptr, ...) @fprintf(ptr noundef %9, ptr noundef @.str.63) #11
  store i32 0, ptr %7, align 4, !tbaa !53
  br label %11

11:                                               ; preds = %36, %2
  %12 = load i32, ptr %7, align 4, !tbaa !53
  %13 = load ptr, ptr %4, align 8, !tbaa !142
  %14 = getelementptr inbounds nuw %struct.SC_Surface_, ptr %13, i32 0, i32 1
  %15 = call i32 @Vec_FltSize(ptr noundef %14)
  %16 = icmp slt i32 %12, %15
  br i1 %16, label %17, label %22

17:                                               ; preds = %11
  %18 = load ptr, ptr %4, align 8, !tbaa !142
  %19 = getelementptr inbounds nuw %struct.SC_Surface_, ptr %18, i32 0, i32 1
  %20 = load i32, ptr %7, align 4, !tbaa !53
  %21 = call float @Vec_FltEntry(ptr noundef %19, i32 noundef %20)
  store float %21, ptr %6, align 4, !tbaa !138
  br label %22

22:                                               ; preds = %17, %11
  %23 = phi i1 [ false, %11 ], [ true, %17 ]
  br i1 %23, label %24, label %39

24:                                               ; preds = %22
  %25 = load ptr, ptr %3, align 8, !tbaa !107
  %26 = load float, ptr %6, align 4, !tbaa !138
  %27 = fpext float %26 to double
  %28 = load i32, ptr %7, align 4, !tbaa !53
  %29 = load ptr, ptr %4, align 8, !tbaa !142
  %30 = getelementptr inbounds nuw %struct.SC_Surface_, ptr %29, i32 0, i32 1
  %31 = call i32 @Vec_FltSize(ptr noundef %30)
  %32 = sub nsw i32 %31, 1
  %33 = icmp eq i32 %28, %32
  %34 = select i1 %33, ptr @.str.65, ptr @.str.66
  %35 = call i32 (ptr, ptr, ...) @fprintf(ptr noundef %25, ptr noundef @.str.64, double noundef %27, ptr noundef %34) #11
  br label %36

36:                                               ; preds = %24
  %37 = load i32, ptr %7, align 4, !tbaa !53
  %38 = add nsw i32 %37, 1
  store i32 %38, ptr %7, align 4, !tbaa !53
  br label %11, !llvm.loop !170

39:                                               ; preds = %22
  %40 = load ptr, ptr %3, align 8, !tbaa !107
  %41 = call i32 (ptr, ptr, ...) @fprintf(ptr noundef %40, ptr noundef @.str.67) #11
  %42 = load ptr, ptr %3, align 8, !tbaa !107
  %43 = call i32 (ptr, ptr, ...) @fprintf(ptr noundef %42, ptr noundef @.str.68) #11
  store i32 0, ptr %7, align 4, !tbaa !53
  br label %44

44:                                               ; preds = %69, %39
  %45 = load i32, ptr %7, align 4, !tbaa !53
  %46 = load ptr, ptr %4, align 8, !tbaa !142
  %47 = getelementptr inbounds nuw %struct.SC_Surface_, ptr %46, i32 0, i32 2
  %48 = call i32 @Vec_FltSize(ptr noundef %47)
  %49 = icmp slt i32 %45, %48
  br i1 %49, label %50, label %55

50:                                               ; preds = %44
  %51 = load ptr, ptr %4, align 8, !tbaa !142
  %52 = getelementptr inbounds nuw %struct.SC_Surface_, ptr %51, i32 0, i32 2
  %53 = load i32, ptr %7, align 4, !tbaa !53
  %54 = call float @Vec_FltEntry(ptr noundef %52, i32 noundef %53)
  store float %54, ptr %6, align 4, !tbaa !138
  br label %55

55:                                               ; preds = %50, %44
  %56 = phi i1 [ false, %44 ], [ true, %50 ]
  br i1 %56, label %57, label %72

57:                                               ; preds = %55
  %58 = load ptr, ptr %3, align 8, !tbaa !107
  %59 = load float, ptr %6, align 4, !tbaa !138
  %60 = fpext float %59 to double
  %61 = load i32, ptr %7, align 4, !tbaa !53
  %62 = load ptr, ptr %4, align 8, !tbaa !142
  %63 = getelementptr inbounds nuw %struct.SC_Surface_, ptr %62, i32 0, i32 2
  %64 = call i32 @Vec_FltSize(ptr noundef %63)
  %65 = sub nsw i32 %64, 1
  %66 = icmp eq i32 %61, %65
  %67 = select i1 %66, ptr @.str.65, ptr @.str.66
  %68 = call i32 (ptr, ptr, ...) @fprintf(ptr noundef %58, ptr noundef @.str.64, double noundef %60, ptr noundef %67) #11
  br label %69

69:                                               ; preds = %57
  %70 = load i32, ptr %7, align 4, !tbaa !53
  %71 = add nsw i32 %70, 1
  store i32 %71, ptr %7, align 4, !tbaa !53
  br label %44, !llvm.loop !171

72:                                               ; preds = %55
  %73 = load ptr, ptr %3, align 8, !tbaa !107
  %74 = call i32 (ptr, ptr, ...) @fprintf(ptr noundef %73, ptr noundef @.str.67) #11
  %75 = load ptr, ptr %3, align 8, !tbaa !107
  %76 = call i32 (ptr, ptr, ...) @fprintf(ptr noundef %75, ptr noundef @.str.69) #11
  store i32 0, ptr %7, align 4, !tbaa !53
  br label %77

77:                                               ; preds = %141, %72
  %78 = load i32, ptr %7, align 4, !tbaa !53
  %79 = load ptr, ptr %4, align 8, !tbaa !142
  %80 = getelementptr inbounds nuw %struct.SC_Surface_, ptr %79, i32 0, i32 3
  %81 = call i32 @Vec_PtrSize(ptr noundef %80)
  %82 = icmp slt i32 %78, %81
  br i1 %82, label %83, label %88

83:                                               ; preds = %77
  %84 = load ptr, ptr %4, align 8, !tbaa !142
  %85 = getelementptr inbounds nuw %struct.SC_Surface_, ptr %84, i32 0, i32 3
  %86 = load i32, ptr %7, align 4, !tbaa !53
  %87 = call ptr @Vec_PtrEntry(ptr noundef %85, i32 noundef %86)
  store ptr %87, ptr %5, align 8, !tbaa !144
  br label %88

88:                                               ; preds = %83, %77
  %89 = phi i1 [ false, %77 ], [ true, %83 ]
  br i1 %89, label %90, label %144

90:                                               ; preds = %88
  store i32 0, ptr %8, align 4, !tbaa !53
  br label %91

91:                                               ; preds = %122, %90
  %92 = load i32, ptr %8, align 4, !tbaa !53
  %93 = load ptr, ptr %5, align 8, !tbaa !144
  %94 = call i32 @Vec_FltSize(ptr noundef %93)
  %95 = icmp slt i32 %92, %94
  br i1 %95, label %96, label %100

96:                                               ; preds = %91
  %97 = load ptr, ptr %5, align 8, !tbaa !144
  %98 = load i32, ptr %8, align 4, !tbaa !53
  %99 = call float @Vec_FltEntry(ptr noundef %97, i32 noundef %98)
  store float %99, ptr %6, align 4, !tbaa !138
  br label %100

100:                                              ; preds = %96, %91
  %101 = phi i1 [ false, %91 ], [ true, %96 ]
  br i1 %101, label %102, label %125

102:                                              ; preds = %100
  %103 = load ptr, ptr %3, align 8, !tbaa !107
  %104 = load float, ptr %6, align 4, !tbaa !138
  %105 = fpext float %104 to double
  %106 = load i32, ptr %7, align 4, !tbaa !53
  %107 = load ptr, ptr %4, align 8, !tbaa !142
  %108 = getelementptr inbounds nuw %struct.SC_Surface_, ptr %107, i32 0, i32 3
  %109 = call i32 @Vec_PtrSize(ptr noundef %108)
  %110 = sub nsw i32 %109, 1
  %111 = icmp eq i32 %106, %110
  br i1 %111, label %112, label %118

112:                                              ; preds = %102
  %113 = load i32, ptr %8, align 4, !tbaa !53
  %114 = load ptr, ptr %5, align 8, !tbaa !144
  %115 = call i32 @Vec_FltSize(ptr noundef %114)
  %116 = sub nsw i32 %115, 1
  %117 = icmp eq i32 %113, %116
  br label %118

118:                                              ; preds = %112, %102
  %119 = phi i1 [ false, %102 ], [ %117, %112 ]
  %120 = select i1 %119, ptr @.str.70, ptr @.str.66
  %121 = call i32 (ptr, ptr, ...) @fprintf(ptr noundef %103, ptr noundef @.str.64, double noundef %105, ptr noundef %120) #11
  br label %122

122:                                              ; preds = %118
  %123 = load i32, ptr %8, align 4, !tbaa !53
  %124 = add nsw i32 %123, 1
  store i32 %124, ptr %8, align 4, !tbaa !53
  br label %91, !llvm.loop !172

125:                                              ; preds = %100
  %126 = load i32, ptr %7, align 4, !tbaa !53
  %127 = load ptr, ptr %4, align 8, !tbaa !142
  %128 = getelementptr inbounds nuw %struct.SC_Surface_, ptr %127, i32 0, i32 3
  %129 = call i32 @Vec_PtrSize(ptr noundef %128)
  %130 = sub nsw i32 %129, 1
  %131 = icmp eq i32 %126, %130
  br i1 %131, label %132, label %135

132:                                              ; preds = %125
  %133 = load ptr, ptr %3, align 8, !tbaa !107
  %134 = call i32 (ptr, ptr, ...) @fprintf(ptr noundef %133, ptr noundef @.str.24) #11
  br label %140

135:                                              ; preds = %125
  %136 = load ptr, ptr %3, align 8, !tbaa !107
  %137 = call i32 (ptr, ptr, ...) @fprintf(ptr noundef %136, ptr noundef @.str.71) #11
  %138 = load ptr, ptr %3, align 8, !tbaa !107
  %139 = call i32 (ptr, ptr, ...) @fprintf(ptr noundef %138, ptr noundef @.str.72) #11
  br label %140

140:                                              ; preds = %135, %132
  br label %141

141:                                              ; preds = %140
  %142 = load i32, ptr %7, align 4, !tbaa !53
  %143 = add nsw i32 %142, 1
  store i32 %143, ptr %7, align 4, !tbaa !53
  br label %77, !llvm.loop !173

144:                                              ; preds = %88
  call void @llvm.lifetime.end.p0(i64 4, ptr %8) #11
  call void @llvm.lifetime.end.p0(i64 4, ptr %7) #11
  call void @llvm.lifetime.end.p0(i64 4, ptr %6) #11
  call void @llvm.lifetime.end.p0(i64 8, ptr %5) #11
  ret void
}