; Function Attrs: nofree nounwind uwtable
define internal fastcc void @Abc_SclWriteSurfaceText(ptr noundef nonnull captures(none) %0, ptr noundef readonly captures(none) %1) unnamed_addr #15 {
  %3 = tail call i64 @fwrite(ptr nonnull @.str.63, i64 19, i64 1, ptr nonnull %0)
  %4 = getelementptr i8, ptr %1, i64 12
  %.val5762 = load i32, ptr %4, align 4, !tbaa !74
  %5 = icmp sgt i32 %.val5762, 0
  br i1 %5, label %.lr.ph, label %.critedge

.lr.ph:                                           ; preds = %2
  %6 = getelementptr i8, ptr %1, i64 16
  br label %7

7:                                                ; preds = %.lr.ph, %7
  %indvars.iv = phi i64 [ 0, %.lr.ph ], [ %indvars.iv.next, %7 ]
  %.val5764 = phi i32 [ %.val5762, %.lr.ph ], [ %.val57, %7 ]
  %.val61 = load ptr, ptr %6, align 8, !tbaa !76
  %8 = getelementptr inbounds nuw float, ptr %.val61, i64 %indvars.iv
  %9 = load float, ptr %8, align 4, !tbaa !77
  %10 = fpext float %9 to double
  %11 = add nsw i32 %.val5764, -1
  %12 = zext i32 %11 to i64
  %13 = icmp eq i64 %indvars.iv, %12
  %14 = select i1 %13, ptr @.str.65, ptr @.str.66
  %15 = tail call i32 (ptr, ptr, ...) @fprintf(ptr noundef nonnull %0, ptr noundef nonnull @.str.64, double noundef %10, ptr noundef nonnull %14) #19
  %indvars.iv.next = add nuw nsw i64 %indvars.iv, 1
  %.val57 = load i32, ptr %4, align 4, !tbaa !74
  %16 = sext i32 %.val57 to i64
  %17 = icmp slt i64 %indvars.iv.next, %16
  br i1 %17, label %7, label %.critedge, !llvm.loop !137

.critedge:                                        ; preds = %7, %2
  %18 = tail call i64 @fwrite(ptr nonnull @.str.67, i64 4, i64 1, ptr nonnull %0)
  %19 = tail call i64 @fwrite(ptr nonnull @.str.68, i64 19, i64 1, ptr nonnull %0)
  %20 = getelementptr i8, ptr %1, i64 28
  %.val5565 = load i32, ptr %20, align 4, !tbaa !74
  %21 = icmp sgt i32 %.val5565, 0
  br i1 %21, label %.lr.ph68, label %.critedge2

.lr.ph68:                                         ; preds = %.critedge
  %22 = getelementptr i8, ptr %1, i64 32
  br label %23

23:                                               ; preds = %.lr.ph68, %23
  %indvars.iv77 = phi i64 [ 0, %.lr.ph68 ], [ %indvars.iv.next78, %23 ]
  %.val5567 = phi i32 [ %.val5565, %.lr.ph68 ], [ %.val55, %23 ]
  %.val60 = load ptr, ptr %22, align 8, !tbaa !76
  %24 = getelementptr inbounds nuw float, ptr %.val60, i64 %indvars.iv77
  %25 = load float, ptr %24, align 4, !tbaa !77
  %26 = fpext float %25 to double
  %27 = add nsw i32 %.val5567, -1
  %28 = zext i32 %27 to i64
  %29 = icmp eq i64 %indvars.iv77, %28
  %30 = select i1 %29, ptr @.str.65, ptr @.str.66
  %31 = tail call i32 (ptr, ptr, ...) @fprintf(ptr noundef nonnull %0, ptr noundef nonnull @.str.64, double noundef %26, ptr noundef nonnull %30) #19
  %indvars.iv.next78 = add nuw nsw i64 %indvars.iv77, 1
  %.val55 = load i32, ptr %20, align 4, !tbaa !74
  %32 = sext i32 %.val55 to i64
  %33 = icmp slt i64 %indvars.iv.next78, %32
  br i1 %33, label %23, label %.critedge2, !llvm.loop !138

.critedge2:                                       ; preds = %23, %.critedge
  %34 = tail call i64 @fwrite(ptr nonnull @.str.67, i64 4, i64 1, ptr nonnull %0)
  %35 = tail call i64 @fwrite(ptr nonnull @.str.69, i64 19, i64 1, ptr nonnull %0)
  %36 = getelementptr i8, ptr %1, i64 44
  %.val5173 = load i32, ptr %36, align 4, !tbaa !21
  %37 = icmp sgt i32 %.val5173, 0
  br i1 %37, label %.lr.ph75, label %.critedge4

.lr.ph75:                                         ; preds = %.critedge2
  %38 = getelementptr i8, ptr %1, i64 48
  br label %39

39:                                               ; preds = %.lr.ph75, %67
  %.val87 = phi i32 [ %.val5173, %.lr.ph75 ], [ %.val51, %67 ]
  %indvars.iv83 = phi i64 [ 0, %.lr.ph75 ], [ %indvars.iv.next84, %67 ]
  %.val58 = load ptr, ptr %38, align 8, !tbaa !19
  %40 = getelementptr inbounds nuw ptr, ptr %.val58, i64 %indvars.iv83
  %41 = load ptr, ptr %40, align 8, !tbaa !22
  %42 = getelementptr i8, ptr %41, i64 4
  %.val5369 = load i32, ptr %42, align 4, !tbaa !74
  %43 = icmp sgt i32 %.val5369, 0
  br i1 %43, label %.lr.ph72, label %.critedge6

.lr.ph72:                                         ; preds = %39
  %44 = getelementptr i8, ptr %41, i64 8
  br label %45

45:                                               ; preds = %.lr.ph72, %45
  %indvars.iv80 = phi i64 [ 0, %.lr.ph72 ], [ %indvars.iv.next81, %45 ]
  %.val5371 = phi i32 [ %.val5369, %.lr.ph72 ], [ %.val53, %45 ]
  %.val59 = load ptr, ptr %44, align 8, !tbaa !76
  %46 = getelementptr inbounds nuw float, ptr %.val59, i64 %indvars.iv80
  %47 = load float, ptr %46, align 4, !tbaa !77
  %48 = fpext float %47 to double
  %.val50 = load i32, ptr %36, align 4, !tbaa !21
  %49 = add nsw i32 %.val50, -1
  %50 = zext i32 %49 to i64
  %51 = icmp eq i64 %indvars.iv83, %50
  %52 = add nsw i32 %.val5371, -1
  %53 = zext i32 %52 to i64
  %54 = icmp eq i64 %indvars.iv80, %53
  %55 = select i1 %51, i1 %54, i1 false
  %56 = select i1 %55, ptr @.str.70, ptr @.str.66
  %57 = tail call i32 (ptr, ptr, ...) @fprintf(ptr noundef nonnull %0, ptr noundef nonnull @.str.64, double noundef %48, ptr noundef nonnull %56) #19
  %indvars.iv.next81 = add nuw nsw i64 %indvars.iv80, 1
  %.val53 = load i32, ptr %42, align 4, !tbaa !74
  %58 = sext i32 %.val53 to i64
  %59 = icmp slt i64 %indvars.iv.next81, %58
  br i1 %59, label %45, label %.critedge6.loopexit, !llvm.loop !139

.critedge6.loopexit:                              ; preds = %45
  %.val.pre = load i32, ptr %36, align 4, !tbaa !21
  br label %.critedge6

.critedge6:                                       ; preds = %.critedge6.loopexit, %39
  %.val = phi i32 [ %.val.pre, %.critedge6.loopexit ], [ %.val87, %39 ]
  %60 = add nsw i32 %.val, -1
  %61 = zext i32 %60 to i64
  %62 = icmp eq i64 %indvars.iv83, %61
  br i1 %62, label %63, label %64

63:                                               ; preds = %.critedge6
  %fputc = tail call i32 @fputc(i32 10, ptr nonnull %0)
  br label %67

64:                                               ; preds = %.critedge6
  %65 = tail call i64 @fwrite(ptr nonnull @.str.71, i64 2, i64 1, ptr nonnull %0)
  %66 = tail call i64 @fwrite(ptr nonnull @.str.72, i64 19, i64 1, ptr nonnull %0)
  br label %67

67:                                               ; preds = %63, %64
  %indvars.iv.next84 = add nuw nsw i64 %indvars.iv83, 1
  %.val51 = load i32, ptr %36, align 4, !tbaa !21
  %68 = sext i32 %.val51 to i64
  %69 = icmp slt i64 %indvars.iv.next84, %68
  br i1 %69, label %39, label %.critedge4, !llvm.loop !140

.critedge4:                                       ; preds = %67, %.critedge2
  ret void
}